target datalayout = "e-m:e-p270:32:32-p271:32:32-p272:64:64-i64:64-i128:128-f80:128-n8:16:32:64-S128"
target triple = "x86_64-pc-linux-gnu"

%"class.icu_77::BytesTrieBuilder" = type { %"class.icu_77::StringTrieBuilder", ptr, ptr, i32, i32, ptr, i32, i32 }
%"class.icu_77::StringTrieBuilder" = type { %"class.icu_77::UObject", ptr }
%"class.icu_77::UObject" = type { ptr }
%"class.icu_77::BytesTrie" = type <{ ptr, ptr, ptr, i32, [4 x i8] }>

; Function Attrs: mustprogress nounwind uwtable
define linkonce_odr void @_ZN6icu_779BytesTrieC2EPvPKv(ptr noundef nonnull align 8 dereferenceable(28) %0, ptr noundef %1, ptr noundef %2) unnamed_addr #0 comdat align 2 {
  %4 = alloca ptr, align 8
  %5 = alloca ptr, align 8
  %6 = alloca ptr, align 8
  store ptr %0, ptr %4, align 8, !tbaa !55
  store ptr %1, ptr %5, align 8, !tbaa !22
  store ptr %2, ptr %6, align 8, !tbaa !22
  %7 = load ptr, ptr %4, align 8
  %8 = getelementptr inbounds nuw %"class.icu_77::BytesTrie", ptr %7, i32 0, i32 0
  %9 = load ptr, ptr %5, align 8, !tbaa !22
  store ptr %9, ptr %8, align 8, !tbaa !59
  %10 = getelementptr inbounds nuw %"class.icu_77::BytesTrie", ptr %7, i32 0, i32 1
  %11 = load ptr, ptr %6, align 8, !tbaa !22
  store ptr %11, ptr %10, align 8, !tbaa !61
  %12 = getelementptr inbounds nuw %"class.icu_77::BytesTrie", ptr %7, i32 0, i32 2
  %13 = getelementptr inbounds nuw %"class.icu_77::BytesTrie", ptr %7, i32 0, i32 1
  %14 = load ptr, ptr %13, align 8, !tbaa !61
  store ptr %14, ptr %12, align 8, !tbaa !62
  %15 = getelementptr inbounds nuw %"class.icu_77::BytesTrie", ptr %7, i32 0, i32 3
  store i32 -1, ptr %15, align 8, !tbaa !63
  ret void
}

; Function Attrs: inlinehint mustprogress nounwind uwtable
define internal noundef signext i8 @_ZL9U_SUCCESS10UErrorCode(i32 noundef %0) #2 {
  %2 = alloca i32, align 4
  store i32 %0, ptr %2, align 4, !tbaa !15
  %3 = load i32, ptr %2, align 4, !tbaa !15
  %4 = icmp sle i32 %3, 0
  %5 = zext i1 %4 to i8
  ret i8 %5
}

; Function Attrs: mustprogress uwtable
define noundef ptr @_ZN6icu_7716BytesTrieBuilder5buildE22UStringTrieBuildOptionR10UErrorCode(ptr noundef nonnull align 8 dereferenceable(56) %0, i32 noundef %1, ptr noundef nonnull align 4 dereferenceable(4) %2) #1 align 2 personality ptr @__gxx_personality_v0 {
  %4 = alloca ptr, align 8
  %5 = alloca i32, align 4
  %6 = alloca ptr, align 8
  %7 = alloca ptr, align 8
  %8 = alloca ptr, align 8
  %9 = alloca i1, align 1
  %10 = alloca ptr, align 8
  %11 = alloca i32, align 4
  store ptr %0, ptr %4, align 8, !tbaa !37
  store i32 %1, ptr %5, align 4, !tbaa !53
  store ptr %2, ptr %6, align 8, !tbaa !22
  %12 = load ptr, ptr %4, align 8
  %13 = load i32, ptr %5, align 4, !tbaa !53
  %14 = load ptr, ptr %6, align 8, !tbaa !22
  call void @_ZN6icu_7716BytesTrieBuilder10buildBytesE22UStringTrieBuildOptionR10UErrorCode(ptr noundef nonnull align 8 dereferenceable(56) %12, i32 noundef %13, ptr noundef nonnull align 4 dereferenceable(4) %14)
  call void @llvm.lifetime.start.p0(i64 8, ptr %7) #12
  store ptr null, ptr %7, align 8, !tbaa !55
  %15 = load ptr, ptr %6, align 8, !tbaa !22
  %16 = load i32, ptr %15, align 4, !tbaa !15
  %17 = call noundef signext i8 @_ZL9U_SUCCESS10UErrorCode(i32 noundef %16)
  %18 = icmp ne i8 %17, 0
  br i1 %18, label %19, label %53

19:                                               ; preds = %3
  %20 = call noundef ptr @_ZN6icu_777UMemorynwEm(i64 noundef 32) #12
  %21 = icmp eq ptr %20, null
  store i1 false, ptr %9, align 1
  br i1 %21, label %35, label %22

22:                                               ; preds = %19
  store ptr %20, ptr %8, align 8
  store i1 true, ptr %9, align 1
  %23 = getelementptr inbounds nuw %"class.icu_77::BytesTrieBuilder", ptr %12, i32 0, i32 5
  %24 = load ptr, ptr %23, align 8, !tbaa !49
  %25 = getelementptr inbounds nuw %"class.icu_77::BytesTrieBuilder", ptr %12, i32 0, i32 5
  %26 = load ptr, ptr %25, align 8, !tbaa !49
  %27 = getelementptr inbounds nuw %"class.icu_77::BytesTrieBuilder", ptr %12, i32 0, i32 6
  %28 = load i32, ptr %27, align 8, !tbaa !50
  %29 = getelementptr inbounds nuw %"class.icu_77::BytesTrieBuilder", ptr %12, i32 0, i32 7
  %30 = load i32, ptr %29, align 4, !tbaa !51
  %31 = sub nsw i32 %28, %30
  %32 = sext i32 %31 to i64
  %33 = getelementptr inbounds i8, ptr %26, i64 %32
  invoke void @_ZN6icu_779BytesTrieC2EPvPKv(ptr noundef nonnull align 8 dereferenceable(28) %20, ptr noundef %24, ptr noundef %33)
          to label %34 unwind label %41

34:                                               ; preds = %22
  br label %35

35:                                               ; preds = %34, %19
  %36 = phi ptr [ %20, %34 ], [ null, %19 ]
  store ptr %36, ptr %7, align 8, !tbaa !55
  %37 = load ptr, ptr %7, align 8, !tbaa !55
  %38 = icmp eq ptr %37, null
  br i1 %38, label %39, label %49

39:                                               ; preds = %35
  %40 = load ptr, ptr %6, align 8, !tbaa !22
  store i32 7, ptr %40, align 4, !tbaa !15
  br label %52

41:                                               ; preds = %22
  %42 = landingpad { ptr, i32 }
          cleanup
  %43 = extractvalue { ptr, i32 } %42, 0
  store ptr %43, ptr %10, align 8
  %44 = extractvalue { ptr, i32 } %42, 1
  store i32 %44, ptr %11, align 4
  %45 = load i1, ptr %9, align 1
  br i1 %45, label %46, label %48

46:                                               ; preds = %41
  %47 = load ptr, ptr %8, align 8
  call void @_ZN6icu_777UMemorydlEPv(ptr noundef %47) #12
  br label %48

48:                                               ; preds = %46, %41
  call void @llvm.lifetime.end.p0(i64 8, ptr %7) #12
  br label %55

49:                                               ; preds = %35
  %50 = getelementptr inbounds nuw %"class.icu_77::BytesTrieBuilder", ptr %12, i32 0, i32 5
  store ptr null, ptr %50, align 8, !tbaa !49
  %51 = getelementptr inbounds nuw %"class.icu_77::BytesTrieBuilder", ptr %12, i32 0, i32 6
  store i32 0, ptr %51, align 8, !tbaa !50
  br label %52

52:                                               ; preds = %49, %39
  br label %53

53:                                               ; preds = %52, %3
  %54 = load ptr, ptr %7, align 8, !tbaa !55
  call void @llvm.lifetime.end.p0(i64 8, ptr %7) #12
  ret ptr %54

55:                                               ; preds = %48
  %56 = load ptr, ptr %10, align 8
  %57 = load i32, ptr %11, align 4
  %58 = insertvalue { ptr, i32 } poison, ptr %56, 0
  %59 = insertvalue { ptr, i32 } %58, i32 %57, 1
  resume { ptr, i32 } %59
}