; Function Attrs: mustprogress uwtable
define noundef ptr @_ZN6icu_7716BytesTrieBuilder5buildE22UStringTrieBuildOptionR10UErrorCode(ptr noundef nonnull align 8 dereferenceable(56) %0, i32 noundef %1, ptr noundef nonnull align 4 dereferenceable(4) %2) local_unnamed_addr #1 align 2 personality ptr @__gxx_personality_v0 {
  tail call void @_ZN6icu_7716BytesTrieBuilder10buildBytesE22UStringTrieBuildOptionR10UErrorCode(ptr noundef nonnull align 8 dereferenceable(56) %0, i32 noundef %1, ptr noundef nonnull align 4 dereferenceable(4) %2)
  %4 = load i32, ptr %2, align 4, !tbaa !13
  %5 = icmp sgt i32 %4, 0
  br i1 %5, label %23, label %6

6:                                                ; preds = %3
  %7 = tail call noundef ptr @_ZN6icu_777UMemorynwEm(i64 noundef 32) #19
  %8 = icmp eq ptr %7, null
  br i1 %8, label %9, label %10

9:                                                ; preds = %6
  store i32 7, ptr %2, align 4, !tbaa !13
  br label %23

10:                                               ; preds = %6
  %11 = getelementptr inbounds nuw i8, ptr %0, i64 40
  %12 = load ptr, ptr %11, align 8, !tbaa !31
  %13 = getelementptr inbounds nuw i8, ptr %0, i64 48
  %14 = load i32, ptr %13, align 8, !tbaa !35
  %15 = getelementptr inbounds nuw i8, ptr %0, i64 52
  %16 = load i32, ptr %15, align 4, !tbaa !32
  %17 = sub nsw i32 %14, %16
  %18 = sext i32 %17 to i64
  %19 = getelementptr inbounds i8, ptr %12, i64 %18
  store ptr %12, ptr %7, align 8, !tbaa !36
  %20 = getelementptr inbounds nuw i8, ptr %7, i64 8
  store ptr %19, ptr %20, align 8, !tbaa !38
  %21 = getelementptr inbounds nuw i8, ptr %7, i64 16
  store ptr %19, ptr %21, align 8, !tbaa !39
  %22 = getelementptr inbounds nuw i8, ptr %7, i64 24
  store i32 -1, ptr %22, align 8, !tbaa !40
  store ptr null, ptr %11, align 8, !tbaa !31
  store i32 0, ptr %13, align 8, !tbaa !35
  br label %23

23:                                               ; preds = %9, %10, %3
  %.0 = phi ptr [ null, %9 ], [ %7, %10 ], [ null, %3 ]
  ret ptr %.0
}